target datalayout = "e-m:e-p270:32:32-p271:32:32-p272:64:64-i64:64-i128:128-f80:128-n8:16:32:64-S128"
target triple = "x86_64-pc-linux-gnu"

%struct.Vec_Int_t_ = type { i32, i32, ptr }
%struct.Gia_Man_t_ = type { ptr, ptr, i32, i32, i32, i32, ptr, ptr, i32, i32, i32, ptr, ptr, %struct.Vec_Int_t_, %struct.Vec_Int_t_, i32, i32, i32, %struct.Vec_Int_t_, ptr, ptr, ptr, i32, i32, i32, i32, ptr, ptr, ptr, ptr, ptr, i32, i32, ptr, i32, ptr, ptr, ptr, ptr, ptr, ptr, ptr, ptr, ptr, ptr, ptr, ptr, ptr, ptr, ptr, ptr, ptr, ptr, %struct.Vec_Int_t_, %struct.Vec_Int_t_, ptr, ptr, ptr, ptr, ptr, ptr, ptr, ptr, ptr, ptr, ptr, ptr, ptr, ptr, ptr, ptr, ptr, ptr, ptr, ptr, ptr, i32, float, float, ptr, ptr, i32, ptr, ptr, ptr, ptr, ptr, ptr, ptr, ptr, ptr, ptr, ptr, ptr, ptr, ptr, ptr, i64, i64, ptr, ptr, i32, i32, i32, i32, i32, i32, i32, i32, i32, i32, i32, i32, ptr, ptr, ptr, ptr, ptr, ptr, ptr, ptr, i32, i32, i32, ptr, i32, i32, ptr, ptr, ptr, ptr, ptr, ptr, i32, i32, ptr, %struct.Vec_Int_t_, %struct.Vec_Int_t_, %struct.Vec_Int_t_, ptr, ptr, ptr, i32, i32, i32, i32, ptr, ptr, ptr, ptr, ptr }
%struct.Gia_Obj_t_ = type <{ i64, i32 }>

; Function Attrs: inlinehint nounwind uwtable
define internal void @Vec_IntGrow(ptr noundef %0, i32 noundef %1) #3 {
  %3 = alloca ptr, align 8
  %4 = alloca i32, align 4
  store ptr %0, ptr %3, align 8, !tbaa !8
  store i32 %1, ptr %4, align 4, !tbaa !10
  %5 = load ptr, ptr %3, align 8, !tbaa !8
  %6 = getelementptr inbounds nuw %struct.Vec_Int_t_, ptr %5, i32 0, i32 0
  %7 = load i32, ptr %6, align 8, !tbaa !33
  %8 = load i32, ptr %4, align 4, !tbaa !10
  %9 = icmp sge i32 %7, %8
  br i1 %9, label %10, label %11

10:                                               ; preds = %2
  br label %36

11:                                               ; preds = %2
  %12 = load ptr, ptr %3, align 8, !tbaa !8
  %13 = getelementptr inbounds nuw %struct.Vec_Int_t_, ptr %12, i32 0, i32 2
  %14 = load ptr, ptr %13, align 8, !tbaa !34
  %15 = icmp ne ptr %14, null
  br i1 %15, label %16, label %24

16:                                               ; preds = %11
  %17 = load ptr, ptr %3, align 8, !tbaa !8
  %18 = getelementptr inbounds nuw %struct.Vec_Int_t_, ptr %17, i32 0, i32 2
  %19 = load ptr, ptr %18, align 8, !tbaa !34
  %20 = load i32, ptr %4, align 4, !tbaa !10
  %21 = sext i32 %20 to i64
  %22 = mul i64 4, %21
  %23 = call ptr @realloc(ptr noundef %19, i64 noundef %22) #12
  br label %29

24:                                               ; preds = %11
  %25 = load i32, ptr %4, align 4, !tbaa !10
  %26 = sext i32 %25 to i64
  %27 = mul i64 4, %26
  %28 = call noalias ptr @malloc(i64 noundef %27) #11
  br label %29

29:                                               ; preds = %24, %16
  %30 = phi ptr [ %23, %16 ], [ %28, %24 ]
  %31 = load ptr, ptr %3, align 8, !tbaa !8
  %32 = getelementptr inbounds nuw %struct.Vec_Int_t_, ptr %31, i32 0, i32 2
  store ptr %30, ptr %32, align 8, !tbaa !34
  %33 = load i32, ptr %4, align 4, !tbaa !10
  %34 = load ptr, ptr %3, align 8, !tbaa !8
  %35 = getelementptr inbounds nuw %struct.Vec_Int_t_, ptr %34, i32 0, i32 0
  store i32 %33, ptr %35, align 8, !tbaa !33
  br label %36

36:                                               ; preds = %29, %10
  ret void
}

; Function Attrs: inlinehint nounwind uwtable
define internal i32 @Gia_ObjFaninId1(ptr noundef %0, i32 noundef %1) #3 {
  %3 = alloca ptr, align 8
  %4 = alloca i32, align 4
  store ptr %0, ptr %3, align 8, !tbaa !35
  store i32 %1, ptr %4, align 4, !tbaa !10
  %5 = load i32, ptr %4, align 4, !tbaa !10
  %6 = load ptr, ptr %3, align 8, !tbaa !35
  %7 = load i64, ptr %6, align 4
  %8 = lshr i64 %7, 32
  %9 = and i64 %8, 536870911
  %10 = trunc i64 %9 to i32
  %11 = sub nsw i32 %5, %10
  ret i32 %11
}

; Function Attrs: inlinehint nounwind uwtable
define internal i32 @Gia_ObjFaninId0(ptr noundef %0, i32 noundef %1) #3 {
  %3 = alloca ptr, align 8
  %4 = alloca i32, align 4
  store ptr %0, ptr %3, align 8, !tbaa !35
  store i32 %1, ptr %4, align 4, !tbaa !10
  %5 = load i32, ptr %4, align 4, !tbaa !10
  %6 = load ptr, ptr %3, align 8, !tbaa !35
  %7 = load i64, ptr %6, align 4
  %8 = and i64 %7, 536870911
  %9 = trunc i64 %8 to i32
  %10 = sub nsw i32 %5, %9
  ret i32 %10
}

; Function Attrs: inlinehint nounwind uwtable
define internal void @Vec_IntPush(ptr noundef %0, i32 noundef %1) #3 {
  %3 = alloca ptr, align 8
  %4 = alloca i32, align 4
  store ptr %0, ptr %3, align 8, !tbaa !8
  store i32 %1, ptr %4, align 4, !tbaa !10
  %5 = load ptr, ptr %3, align 8, !tbaa !8
  %6 = getelementptr inbounds nuw %struct.Vec_Int_t_, ptr %5, i32 0, i32 1
  %7 = load i32, ptr %6, align 4, !tbaa !30
  %8 = load ptr, ptr %3, align 8, !tbaa !8
  %9 = getelementptr inbounds nuw %struct.Vec_Int_t_, ptr %8, i32 0, i32 0
  %10 = load i32, ptr %9, align 8, !tbaa !33
  %11 = icmp eq i32 %7, %10
  br i1 %11, label %12, label %26

12:                                               ; preds = %2
  %13 = load ptr, ptr %3, align 8, !tbaa !8
  %14 = getelementptr inbounds nuw %struct.Vec_Int_t_, ptr %13, i32 0, i32 0
  %15 = load i32, ptr %14, align 8, !tbaa !33
  %16 = icmp slt i32 %15, 16
  br i1 %16, label %17, label %19

17:                                               ; preds = %12
  %18 = load ptr, ptr %3, align 8, !tbaa !8
  call void @Vec_IntGrow(ptr noundef %18, i32 noundef 16)
  br label %25

19:                                               ; preds = %12
  %20 = load ptr, ptr %3, align 8, !tbaa !8
  %21 = load ptr, ptr %3, align 8, !tbaa !8
  %22 = getelementptr inbounds nuw %struct.Vec_Int_t_, ptr %21, i32 0, i32 0
  %23 = load i32, ptr %22, align 8, !tbaa !33
  %24 = mul nsw i32 2, %23
  call void @Vec_IntGrow(ptr noundef %20, i32 noundef %24)
  br label %25

25:                                               ; preds = %19, %17
  br label %26

26:                                               ; preds = %25, %2
  %27 = load i32, ptr %4, align 4, !tbaa !10
  %28 = load ptr, ptr %3, align 8, !tbaa !8
  %29 = getelementptr inbounds nuw %struct.Vec_Int_t_, ptr %28, i32 0, i32 2
  %30 = load ptr, ptr %29, align 8, !tbaa !34
  %31 = load ptr, ptr %3, align 8, !tbaa !8
  %32 = getelementptr inbounds nuw %struct.Vec_Int_t_, ptr %31, i32 0, i32 1
  %33 = load i32, ptr %32, align 4, !tbaa !30
  %34 = add nsw i32 %33, 1
  store i32 %34, ptr %32, align 4, !tbaa !30
  %35 = sext i32 %33 to i64
  %36 = getelementptr inbounds i32, ptr %30, i64 %35
  store i32 %27, ptr %36, align 4, !tbaa !10
  ret void
}

; Function Attrs: inlinehint nounwind uwtable
define internal i32 @Gia_ObjIsCi(ptr noundef %0) #3 {
  %2 = alloca ptr, align 8
  store ptr %0, ptr %2, align 8, !tbaa !35
  %3 = load ptr, ptr %2, align 8, !tbaa !35
  %4 = load i64, ptr %3, align 4
  %5 = lshr i64 %4, 31
  %6 = and i64 %5, 1
  %7 = trunc i64 %6 to i32
  %8 = icmp ne i32 %7, 0
  br i1 %8, label %9, label %15

9:                                                ; preds = %1
  %10 = load ptr, ptr %2, align 8, !tbaa !35
  %11 = load i64, ptr %10, align 4
  %12 = and i64 %11, 536870911
  %13 = trunc i64 %12 to i32
  %14 = icmp eq i32 %13, 536870911
  br label %15

15:                                               ; preds = %9, %1
  %16 = phi i1 [ false, %1 ], [ %14, %9 ]
  %17 = zext i1 %16 to i32
  ret i32 %17
}

; Function Attrs: inlinehint nounwind uwtable
define internal ptr @Gia_ManObj(ptr noundef %0, i32 noundef %1) #3 {
  %3 = alloca ptr, align 8
  %4 = alloca i32, align 4
  store ptr %0, ptr %3, align 8, !tbaa !3
  store i32 %1, ptr %4, align 4, !tbaa !10
  %5 = load ptr, ptr %3, align 8, !tbaa !3
  %6 = getelementptr inbounds nuw %struct.Gia_Man_t_, ptr %5, i32 0, i32 6
  %7 = load ptr, ptr %6, align 8, !tbaa !53
  %8 = load i32, ptr %4, align 4, !tbaa !10
  %9 = sext i32 %8 to i64
  %10 = getelementptr inbounds %struct.Gia_Obj_t_, ptr %7, i64 %9
  ret ptr %10
}

; Function Attrs: inlinehint nounwind uwtable
define internal void @Gia_ObjSetTravIdCurrentId(ptr noundef %0, i32 noundef %1) #3 {
  %3 = alloca ptr, align 8
  %4 = alloca i32, align 4
  store ptr %0, ptr %3, align 8, !tbaa !3
  store i32 %1, ptr %4, align 4, !tbaa !10
  %5 = load ptr, ptr %3, align 8, !tbaa !3
  %6 = getelementptr inbounds nuw %struct.Gia_Man_t_, ptr %5, i32 0, i32 24
  %7 = load i32, ptr %6, align 8, !tbaa !52
  %8 = load ptr, ptr %3, align 8, !tbaa !3
  %9 = getelementptr inbounds nuw %struct.Gia_Man_t_, ptr %8, i32 0, i32 80
  %10 = load ptr, ptr %9, align 8, !tbaa !37
  %11 = load i32, ptr %4, align 4, !tbaa !10
  %12 = sext i32 %11 to i64
  %13 = getelementptr inbounds i32, ptr %10, i64 %12
  store i32 %7, ptr %13, align 4, !tbaa !10
  ret void
}

; Function Attrs: inlinehint nounwind uwtable
define internal i32 @Gia_ObjIsTravIdCurrentId(ptr noundef %0, i32 noundef %1) #3 {
  %3 = alloca ptr, align 8
  %4 = alloca i32, align 4
  store ptr %0, ptr %3, align 8, !tbaa !3
  store i32 %1, ptr %4, align 4, !tbaa !10
  %5 = load ptr, ptr %3, align 8, !tbaa !3
  %6 = getelementptr inbounds nuw %struct.Gia_Man_t_, ptr %5, i32 0, i32 80
  %7 = load ptr, ptr %6, align 8, !tbaa !37
  %8 = load i32, ptr %4, align 4, !tbaa !10
  %9 = sext i32 %8 to i64
  %10 = getelementptr inbounds i32, ptr %7, i64 %9
  %11 = load i32, ptr %10, align 4, !tbaa !10
  %12 = load ptr, ptr %3, align 8, !tbaa !3
  %13 = getelementptr inbounds nuw %struct.Gia_Man_t_, ptr %12, i32 0, i32 24
  %14 = load i32, ptr %13, align 8, !tbaa !52
  %15 = icmp eq i32 %11, %14
  %16 = zext i1 %15 to i32
  ret i32 %16
}

; Function Attrs: inlinehint nounwind uwtable
define internal i32 @Abc_Lit2Var(i32 noundef %0) #3 {
  %2 = alloca i32, align 4
  store i32 %0, ptr %2, align 4, !tbaa !10
  %3 = load i32, ptr %2, align 4, !tbaa !10
  %4 = ashr i32 %3, 1
  ret i32 %4
}

; Function Attrs: inlinehint nounwind uwtable
define internal i32 @Vec_IntEntry(ptr noundef %0, i32 noundef %1) #3 {
  %3 = alloca ptr, align 8
  %4 = alloca i32, align 4
  store ptr %0, ptr %3, align 8, !tbaa !8
  store i32 %1, ptr %4, align 4, !tbaa !10
  %5 = load ptr, ptr %3, align 8, !tbaa !8
  %6 = getelementptr inbounds nuw %struct.Vec_Int_t_, ptr %5, i32 0, i32 2
  %7 = load ptr, ptr %6, align 8, !tbaa !34
  %8 = load i32, ptr %4, align 4, !tbaa !10
  %9 = sext i32 %8 to i64
  %10 = getelementptr inbounds i32, ptr %7, i64 %9
  %11 = load i32, ptr %10, align 4, !tbaa !10
  ret i32 %11
}

; Function Attrs: nounwind uwtable
define i32 @Sbd_ManCutCollect_rec(ptr noundef %0, ptr noundef %1, i32 noundef %2, i32 noundef %3, ptr noundef %4, ptr noundef %5) #0 {
  %7 = alloca i32, align 4
  %8 = alloca ptr, align 8
  %9 = alloca ptr, align 8
  %10 = alloca i32, align 4
  %11 = alloca i32, align 4
  %12 = alloca ptr, align 8
  %13 = alloca ptr, align 8
  %14 = alloca ptr, align 8
  %15 = alloca i32, align 4
  %16 = alloca i32, align 4
  %17 = alloca i32, align 4
  store ptr %0, ptr %8, align 8, !tbaa !3
  store ptr %1, ptr %9, align 8, !tbaa !8
  store i32 %2, ptr %10, align 4, !tbaa !10
  store i32 %3, ptr %11, align 4, !tbaa !10
  store ptr %4, ptr %12, align 8, !tbaa !8
  store ptr %5, ptr %13, align 8, !tbaa !8
  call void @llvm.lifetime.start.p0(i64 8, ptr %14) #9
  call void @llvm.lifetime.start.p0(i64 4, ptr %15) #9
  call void @llvm.lifetime.start.p0(i64 4, ptr %16) #9
  %18 = load ptr, ptr %9, align 8, !tbaa !8
  %19 = load i32, ptr %10, align 4, !tbaa !10
  %20 = call i32 @Vec_IntEntry(ptr noundef %18, i32 noundef %19)
  %21 = icmp sge i32 %20, 0
  br i1 %21, label %22, label %27

22:                                               ; preds = %6
  %23 = load ptr, ptr %9, align 8, !tbaa !8
  %24 = load i32, ptr %10, align 4, !tbaa !10
  %25 = call i32 @Vec_IntEntry(ptr noundef %23, i32 noundef %24)
  %26 = call i32 @Abc_Lit2Var(i32 noundef %25)
  store i32 %26, ptr %10, align 4, !tbaa !10
  br label %27

27:                                               ; preds = %22, %6
  %28 = load i32, ptr %10, align 4, !tbaa !10
  %29 = icmp ne i32 %28, 0
  br i1 %29, label %30, label %35

30:                                               ; preds = %27
  %31 = load ptr, ptr %8, align 8, !tbaa !3
  %32 = load i32, ptr %10, align 4, !tbaa !10
  %33 = call i32 @Gia_ObjIsTravIdCurrentId(ptr noundef %31, i32 noundef %32)
  %34 = icmp ne i32 %33, 0
  br i1 %34, label %35, label %36

35:                                               ; preds = %30, %27
  store i32 1, ptr %7, align 4
  store i32 1, ptr %17, align 4
  br label %87

36:                                               ; preds = %30
  %37 = load ptr, ptr %8, align 8, !tbaa !3
  %38 = load i32, ptr %10, align 4, !tbaa !10
  call void @Gia_ObjSetTravIdCurrentId(ptr noundef %37, i32 noundef %38)
  %39 = load ptr, ptr %8, align 8, !tbaa !3
  %40 = load i32, ptr %10, align 4, !tbaa !10
  %41 = call ptr @Gia_ManObj(ptr noundef %39, i32 noundef %40)
  store ptr %41, ptr %14, align 8, !tbaa !35
  %42 = load ptr, ptr %14, align 8, !tbaa !35
  %43 = call i32 @Gia_ObjIsCi(ptr noundef %42)
  %44 = icmp ne i32 %43, 0
  br i1 %44, label %51, label %45

45:                                               ; preds = %36
  %46 = load ptr, ptr %12, align 8, !tbaa !8
  %47 = load i32, ptr %10, align 4, !tbaa !10
  %48 = call i32 @Vec_IntEntry(ptr noundef %46, i32 noundef %47)
  %49 = load i32, ptr %11, align 4, !tbaa !10
  %50 = icmp sle i32 %48, %49
  br i1 %50, label %51, label %60

51:                                               ; preds = %45, %36
  %52 = load ptr, ptr %13, align 8, !tbaa !8
  %53 = load i32, ptr %10, align 4, !tbaa !10
  call void @Vec_IntPush(ptr noundef %52, i32 noundef %53)
  %54 = load ptr, ptr %12, align 8, !tbaa !8
  %55 = load i32, ptr %10, align 4, !tbaa !10
  %56 = call i32 @Vec_IntEntry(ptr noundef %54, i32 noundef %55)
  %57 = load i32, ptr %11, align 4, !tbaa !10
  %58 = icmp sle i32 %56, %57
  %59 = zext i1 %58 to i32
  store i32 %59, ptr %7, align 4
  store i32 1, ptr %17, align 4
  br label %87

60:                                               ; preds = %45
  %61 = load ptr, ptr %8, align 8, !tbaa !3
  %62 = load ptr, ptr %9, align 8, !tbaa !8
  %63 = load ptr, ptr %14, align 8, !tbaa !35
  %64 = load i32, ptr %10, align 4, !tbaa !10
  %65 = call i32 @Gia_ObjFaninId0(ptr noundef %63, i32 noundef %64)
  %66 = load i32, ptr %11, align 4, !tbaa !10
  %67 = load ptr, ptr %12, align 8, !tbaa !8
  %68 = load ptr, ptr %13, align 8, !tbaa !8
  %69 = call i32 @Sbd_ManCutCollect_rec(ptr noundef %61, ptr noundef %62, i32 noundef %65, i32 noundef %66, ptr noundef %67, ptr noundef %68)
  store i32 %69, ptr %15, align 4, !tbaa !10
  %70 = load ptr, ptr %8, align 8, !tbaa !3
  %71 = load ptr, ptr %9, align 8, !tbaa !8
  %72 = load ptr, ptr %14, align 8, !tbaa !35
  %73 = load i32, ptr %10, align 4, !tbaa !10
  %74 = call i32 @Gia_ObjFaninId1(ptr noundef %72, i32 noundef %73)
  %75 = load i32, ptr %11, align 4, !tbaa !10
  %76 = load ptr, ptr %12, align 8, !tbaa !8
  %77 = load ptr, ptr %13, align 8, !tbaa !8
  %78 = call i32 @Sbd_ManCutCollect_rec(ptr noundef %70, ptr noundef %71, i32 noundef %74, i32 noundef %75, ptr noundef %76, ptr noundef %77)
  store i32 %78, ptr %16, align 4, !tbaa !10
  %79 = load i32, ptr %15, align 4, !tbaa !10
  %80 = icmp ne i32 %79, 0
  br i1 %80, label %81, label %84

81:                                               ; preds = %60
  %82 = load i32, ptr %16, align 4, !tbaa !10
  %83 = icmp ne i32 %82, 0
  br label %84

84:                                               ; preds = %81, %60
  %85 = phi i1 [ false, %60 ], [ %83, %81 ]
  %86 = zext i1 %85 to i32
  store i32 %86, ptr %7, align 4
  store i32 1, ptr %17, align 4
  br label %87

87:                                               ; preds = %84, %51, %35
  call void @llvm.lifetime.end.p0(i64 4, ptr %16) #9
  call void @llvm.lifetime.end.p0(i64 4, ptr %15) #9
  call void @llvm.lifetime.end.p0(i64 8, ptr %14) #9
  %88 = load i32, ptr %7, align 4
  ret i32 %88
}