; Function Attrs: nounwind uwtable
define range(i32 0, 2) i32 @Sbd_ManCutCollect_rec(ptr noundef %0, ptr noundef %1, i32 noundef %2, i32 noundef %3, ptr noundef %4, ptr noundef %5) local_unnamed_addr #0 {
  %7 = getelementptr i8, ptr %1, i64 8
  %.val43 = load ptr, ptr %7, align 8, !tbaa !28
  %8 = sext i32 %2 to i64
  %9 = getelementptr inbounds i32, ptr %.val43, i64 %8
  %10 = load i32, ptr %9, align 4, !tbaa !33
  %11 = lshr i32 %10, 1
  %12 = icmp slt i32 %10, 0
  %spec.select = select i1 %12, i32 %2, i32 %11
  %.not = icmp eq i32 %spec.select, 0
  br i1 %.not, label %76, label %13

13:                                               ; preds = %6
  %14 = getelementptr i8, ptr %0, i64 176
  %.val44 = load i32, ptr %14, align 8, !tbaa !34
  %15 = getelementptr i8, ptr %0, i64 616
  %.val45 = load ptr, ptr %15, align 8, !tbaa !50
  %16 = sext i32 %spec.select to i64
  %17 = getelementptr inbounds i32, ptr %.val45, i64 %16
  %18 = load i32, ptr %17, align 4, !tbaa !33
  %.not52 = icmp eq i32 %18, %.val44
  br i1 %.not52, label %76, label %19

19:                                               ; preds = %13
  store i32 %.val44, ptr %17, align 4, !tbaa !33
  %20 = getelementptr i8, ptr %0, i64 32
  %.val48 = load ptr, ptr %20, align 8, !tbaa !51
  %21 = getelementptr inbounds %struct.Gia_Obj_t_, ptr %.val48, i64 %16
  %.val49 = load i64, ptr %21, align 4
  %22 = and i64 %.val49, 2684354559
  %narrow.i.not = icmp eq i64 %22, 2684354559
  br i1 %narrow.i.not, label %27, label %23

23:                                               ; preds = %19
  %24 = getelementptr i8, ptr %4, i64 8
  %.val41 = load ptr, ptr %24, align 8, !tbaa !28
  %25 = getelementptr inbounds i32, ptr %.val41, i64 %16
  %26 = load i32, ptr %25, align 4, !tbaa !33
  %.not40 = icmp sgt i32 %26, %3
  br i1 %.not40, label %63, label %27

27:                                               ; preds = %23, %19
  %28 = getelementptr inbounds nuw i8, ptr %5, i64 4
  %29 = load i32, ptr %28, align 4, !tbaa !24
  %30 = load i32, ptr %5, align 8, !tbaa !27
  %31 = icmp eq i32 %29, %30
  br i1 %31, label %32, label %.Vec_IntGrow.exit10_crit_edge.i

.Vec_IntGrow.exit10_crit_edge.i:                  ; preds = %27
  %.phi.trans.insert.i = getelementptr inbounds nuw i8, ptr %5, i64 8
  %.pre.i = load ptr, ptr %.phi.trans.insert.i, align 8, !tbaa !28
  br label %Vec_IntPush.exit

32:                                               ; preds = %27
  %33 = icmp slt i32 %29, 16
  br i1 %33, label %34, label %42

34:                                               ; preds = %32
  %35 = getelementptr inbounds nuw i8, ptr %5, i64 8
  %36 = load ptr, ptr %35, align 8, !tbaa !28
  %.not9.i.i = icmp eq ptr %36, null
  br i1 %.not9.i.i, label %39, label %37

37:                                               ; preds = %34
  %38 = tail call dereferenceable_or_null(64) ptr @realloc(ptr noundef nonnull %36, i64 noundef 64) #19
  br label %Vec_IntGrow.exit.i

39:                                               ; preds = %34
  %40 = tail call noalias dereferenceable_or_null(64) ptr @malloc(i64 noundef 64) #18
  br label %Vec_IntGrow.exit.i

Vec_IntGrow.exit.i:                               ; preds = %39, %37
  %41 = phi ptr [ %38, %37 ], [ %40, %39 ]
  store ptr %41, ptr %35, align 8, !tbaa !28
  store i32 16, ptr %5, align 8, !tbaa !27
  br label %Vec_IntPush.exit

42:                                               ; preds = %32
  %43 = shl nuw nsw i32 %29, 1
  %44 = getelementptr inbounds nuw i8, ptr %5, i64 8
  %45 = load ptr, ptr %44, align 8, !tbaa !28
  %.not9.i9.i = icmp eq ptr %45, null
  %46 = zext nneg i32 %43 to i64
  %47 = shl nuw nsw i64 %46, 2
  br i1 %.not9.i9.i, label %50, label %48

48:                                               ; preds = %42
  %49 = tail call ptr @realloc(ptr noundef nonnull %45, i64 noundef %47) #19
  br label %52

50:                                               ; preds = %42
  %51 = tail call noalias ptr @malloc(i64 noundef %47) #18
  br label %52

52:                                               ; preds = %50, %48
  %53 = phi ptr [ %49, %48 ], [ %51, %50 ]
  store ptr %53, ptr %44, align 8, !tbaa !28
  store i32 %43, ptr %5, align 8, !tbaa !27
  br label %Vec_IntPush.exit

Vec_IntPush.exit:                                 ; preds = %.Vec_IntGrow.exit10_crit_edge.i, %Vec_IntGrow.exit.i, %52
  %54 = phi ptr [ %.pre.i, %.Vec_IntGrow.exit10_crit_edge.i ], [ %53, %52 ], [ %41, %Vec_IntGrow.exit.i ]
  %55 = load i32, ptr %28, align 4, !tbaa !24
  %56 = add nsw i32 %55, 1
  store i32 %56, ptr %28, align 4, !tbaa !24
  %57 = sext i32 %55 to i64
  %58 = getelementptr inbounds i32, ptr %54, i64 %57
  store i32 %spec.select, ptr %58, align 4, !tbaa !33
  %59 = getelementptr i8, ptr %4, i64 8
  %.val = load ptr, ptr %59, align 8, !tbaa !28
  %60 = getelementptr inbounds i32, ptr %.val, i64 %16
  %61 = load i32, ptr %60, align 4, !tbaa !33
  %62 = icmp sle i32 %61, %3
  br label %76

63:                                               ; preds = %23
  %64 = trunc i64 %.val49 to i32
  %65 = and i32 %64, 536870911
  %66 = sub nsw i32 %spec.select, %65
  %67 = tail call i32 @Sbd_ManCutCollect_rec(ptr noundef nonnull %0, ptr noundef nonnull %1, i32 noundef %66, i32 noundef %3, ptr noundef nonnull %4, ptr noundef %5)
  %.val51 = load i64, ptr %21, align 4
  %68 = lshr i64 %.val51, 32
  %69 = trunc nuw i64 %68 to i32
  %70 = and i32 %69, 536870911
  %71 = sub nsw i32 %spec.select, %70
  %72 = tail call i32 @Sbd_ManCutCollect_rec(ptr noundef nonnull %0, ptr noundef nonnull %1, i32 noundef %71, i32 noundef %3, ptr noundef nonnull %4, ptr noundef %5)
  %73 = icmp ne i32 %67, 0
  %74 = icmp ne i32 %72, 0
  %75 = select i1 %73, i1 %74, i1 false
  br label %76

76:                                               ; preds = %6, %13, %63, %Vec_IntPush.exit
  %.0.shrunk = phi i1 [ %62, %Vec_IntPush.exit ], [ %75, %63 ], [ true, %13 ], [ true, %6 ]
  %.0 = zext i1 %.0.shrunk to i32
  ret i32 %.0
}